target datalayout = "e-m:e-p270:32:32-p271:32:32-p272:64:64-i64:64-i128:128-f80:128-n8:16:32:64-S128"
target triple = "x86_64-pc-linux-gnu"

%struct.AVRational = type { i32, i32 }
%struct.AVPacket = type { ptr, i64, i64, ptr, i32, i32, i32, ptr, i32, i64, i64, ptr, ptr, %struct.AVRational }

; Function Attrs: inlinehint nounwind uwtable
define internal i64 @av_make_q(i32 noundef %0, i32 noundef %1) #2 {
  %3 = alloca %struct.AVRational, align 4
  %4 = alloca i32, align 4
  %5 = alloca i32, align 4
  store i32 %0, ptr %4, align 4, !tbaa !28
  store i32 %1, ptr %5, align 4, !tbaa !28
  %6 = getelementptr inbounds nuw %struct.AVRational, ptr %3, i32 0, i32 0
  %7 = load i32, ptr %4, align 4, !tbaa !28
  store i32 %7, ptr %6, align 4, !tbaa !29
  %8 = getelementptr inbounds nuw %struct.AVRational, ptr %3, i32 0, i32 1
  %9 = load i32, ptr %5, align 4, !tbaa !28
  store i32 %9, ptr %8, align 4, !tbaa !30
  %10 = load i64, ptr %3, align 4
  ret i64 %10
}

; Function Attrs: nounwind uwtable
define internal void @get_packet_defaults(ptr noundef %0) #0 {
  %2 = alloca ptr, align 8
  %3 = alloca %struct.AVRational, align 4
  store ptr %0, ptr %2, align 8, !tbaa !4
  %4 = load ptr, ptr %2, align 8, !tbaa !4
  call void @llvm.memset.p0.i64(ptr align 8 %4, i8 0, i64 104, i1 false)
  %5 = load ptr, ptr %2, align 8, !tbaa !4
  %6 = getelementptr inbounds nuw %struct.AVPacket, ptr %5, i32 0, i32 1
  store i64 -9223372036854775808, ptr %6, align 8, !tbaa !9
  %7 = load ptr, ptr %2, align 8, !tbaa !4
  %8 = getelementptr inbounds nuw %struct.AVPacket, ptr %7, i32 0, i32 2
  store i64 -9223372036854775808, ptr %8, align 8, !tbaa !17
  %9 = load ptr, ptr %2, align 8, !tbaa !4
  %10 = getelementptr inbounds nuw %struct.AVPacket, ptr %9, i32 0, i32 10
  store i64 -1, ptr %10, align 8, !tbaa !18
  %11 = load ptr, ptr %2, align 8, !tbaa !4
  %12 = getelementptr inbounds nuw %struct.AVPacket, ptr %11, i32 0, i32 13
  call void @llvm.lifetime.start.p0(i64 8, ptr %3) #9
  %13 = call i64 @av_make_q(i32 noundef 0, i32 noundef 1)
  store i64 %13, ptr %3, align 4
  call void @llvm.memcpy.p0.p0.i64(ptr align 8 %12, ptr align 4 %3, i64 8, i1 false), !tbaa.struct !27
  call void @llvm.lifetime.end.p0(i64 8, ptr %3) #9
  ret void
}

; Function Attrs: nounwind uwtable
define ptr @av_packet_alloc() #0 {
  %1 = alloca ptr, align 8
  %2 = alloca ptr, align 8
  %3 = alloca i32, align 4
  call void @llvm.lifetime.start.p0(i64 8, ptr %2) #9
  %4 = call noalias ptr @av_malloc(i64 noundef 104)
  store ptr %4, ptr %2, align 8, !tbaa !4
  %5 = load ptr, ptr %2, align 8, !tbaa !4
  %6 = icmp ne ptr %5, null
  br i1 %6, label %9, label %7

7:                                                ; preds = %0
  %8 = load ptr, ptr %2, align 8, !tbaa !4
  store ptr %8, ptr %1, align 8
  store i32 1, ptr %3, align 4
  br label %12

9:                                                ; preds = %0
  %10 = load ptr, ptr %2, align 8, !tbaa !4
  call void @get_packet_defaults(ptr noundef %10)
  %11 = load ptr, ptr %2, align 8, !tbaa !4
  store ptr %11, ptr %1, align 8
  store i32 1, ptr %3, align 4
  br label %12

12:                                               ; preds = %9, %7
  call void @llvm.lifetime.end.p0(i64 8, ptr %2) #9
  %13 = load ptr, ptr %1, align 8
  ret ptr %13
}

; Function Attrs: nounwind uwtable
define internal ptr @container_packet_alloc(ptr noundef %0) #0 {
  %2 = alloca ptr, align 8
  store ptr %0, ptr %2, align 8, !tbaa !73
  %3 = call ptr @av_packet_alloc()
  ret ptr %3
}