; Function Attrs: nounwind uwtable
define internal noalias ptr @container_packet_alloc(ptr readnone captures(none) %0) #3 {
  %2 = tail call noalias ptr @av_malloc(i64 noundef 104) #16
  %.not.i = icmp eq ptr %2, null
  br i1 %.not.i, label %av_packet_alloc.exit, label %3

3:                                                ; preds = %1
  tail call void @llvm.memset.p0.i64(ptr noundef nonnull align 8 dereferenceable(104) %2, i8 0, i64 96, i1 false)
  %4 = getelementptr inbounds nuw i8, ptr %2, i64 8
  store i64 -9223372036854775808, ptr %4, align 8, !tbaa !4
  %5 = getelementptr inbounds nuw i8, ptr %2, i64 16
  store i64 -9223372036854775808, ptr %5, align 8, !tbaa !15
  %6 = getelementptr inbounds nuw i8, ptr %2, i64 72
  store i64 -1, ptr %6, align 8, !tbaa !16
  %7 = getelementptr inbounds nuw i8, ptr %2, i64 96
  store i64 4294967296, ptr %7, align 8
  br label %av_packet_alloc.exit

av_packet_alloc.exit:                             ; preds = %1, %3
  ret ptr %2
}